; Function Attrs: mustprogress uwtable
define dso_local void @_ZN2cm13uv_signal_ptr4stopEv(ptr nocapture noundef nonnull readonly align 8 dereferenceable(16) %0) local_unnamed_addr #0 align 2 {
  %2 = load ptr, ptr %0, align 8
  %.not = icmp eq ptr %2, null
  br i1 %.not, label %5, label %3

3:                                                ; preds = %1
  %4 = tail call i32 @uv_signal_stop(ptr noundef nonnull %2)
  br label %5

5:                                                ; preds = %3, %1
  ret void
}